; Function Attrs: nounwind uwtable
define ptr @l_List_getD___rarg(ptr noundef %0, ptr noundef %1, ptr noundef %2) local_unnamed_addr #0 {
  %4 = tail call ptr @l___private_Init_GetElem_0__List_get_x3fInternal___rarg(ptr noundef %0, ptr noundef %1) #4
  %5 = ptrtoint ptr %4 to i64
  %6 = and i64 %5, 1
  %.not.i11 = icmp eq i64 %6, 0
  br i1 %.not.i11, label %10, label %7

7:                                                ; preds = %3
  %8 = lshr i64 %5, 1
  %9 = trunc i64 %8 to i32
  br label %lean_obj_tag.exit

10:                                               ; preds = %3
  %11 = getelementptr i8, ptr %4, i64 4
  %.val.i = load i32, ptr %11, align 4
  %12 = lshr i32 %.val.i, 24
  br label %lean_obj_tag.exit

lean_obj_tag.exit:                                ; preds = %7, %10
  %.0.i = phi i32 [ %9, %7 ], [ %12, %10 ]
  %13 = icmp eq i32 %.0.i, 0
  br i1 %13, label %14, label %23

14:                                               ; preds = %lean_obj_tag.exit
  %15 = ptrtoint ptr %2 to i64
  %16 = and i64 %15, 1
  %.not18 = icmp eq i64 %16, 0
  br i1 %.not18, label %17, label %lean_inc.exit10

17:                                               ; preds = %14
  %.val.i12 = load i32, ptr %2, align 4, !tbaa !4
  %18 = icmp sgt i32 %.val.i12, 0
  br i1 %18, label %19, label %21, !prof !9

19:                                               ; preds = %17
  %20 = add nuw i32 %.val.i12, 1
  store i32 %20, ptr %2, align 4, !tbaa !4
  br label %lean_inc.exit10

21:                                               ; preds = %17
  %.not.i13 = icmp eq i32 %.val.i12, 0
  br i1 %.not.i13, label %lean_inc.exit10, label %22

22:                                               ; preds = %21
  tail call void @lean_inc_ref_cold(ptr noundef nonnull %2) #4
  br label %lean_inc.exit10

23:                                               ; preds = %lean_obj_tag.exit
  %24 = getelementptr inbounds nuw i8, ptr %4, i64 8
  %25 = load ptr, ptr %24, align 8, !tbaa !10
  %26 = ptrtoint ptr %25 to i64
  %27 = and i64 %26, 1
  %.not = icmp eq i64 %27, 0
  br i1 %.not, label %28, label %lean_inc.exit

28:                                               ; preds = %23
  %.val.i14 = load i32, ptr %25, align 4, !tbaa !4
  %29 = icmp sgt i32 %.val.i14, 0
  br i1 %29, label %30, label %32, !prof !9

30:                                               ; preds = %28
  %31 = add nuw i32 %.val.i14, 1
  store i32 %31, ptr %25, align 4, !tbaa !4
  br label %lean_inc.exit

32:                                               ; preds = %28
  %.not.i15 = icmp eq i32 %.val.i14, 0
  br i1 %.not.i15, label %lean_inc.exit, label %33

33:                                               ; preds = %32
  tail call void @lean_inc_ref_cold(ptr noundef nonnull %25) #4
  br label %lean_inc.exit

lean_inc.exit:                                    ; preds = %33, %32, %30, %23
  br i1 %.not.i11, label %34, label %lean_inc.exit10

34:                                               ; preds = %lean_inc.exit
  %35 = load i32, ptr %4, align 4, !tbaa !4
  %36 = icmp sgt i32 %35, 1
  br i1 %36, label %37, label %39, !prof !9

37:                                               ; preds = %34
  %38 = add nsw i32 %35, -1
  store i32 %38, ptr %4, align 4, !tbaa !4
  br label %lean_inc.exit10

39:                                               ; preds = %34
  %.not.i = icmp eq i32 %35, 0
  br i1 %.not.i, label %lean_inc.exit10, label %40

40:                                               ; preds = %39
  tail call void @lean_dec_ref_cold(ptr noundef nonnull %4) #4
  br label %lean_inc.exit10

lean_inc.exit10:                                  ; preds = %lean_inc.exit, %37, %39, %40, %14, %19, %21, %22
  %.0 = phi ptr [ %2, %22 ], [ %2, %21 ], [ %2, %19 ], [ %2, %14 ], [ %25, %40 ], [ %25, %39 ], [ %25, %37 ], [ %25, %lean_inc.exit ]
  ret ptr %.0
}